; Function Attrs: nofree norecurse nosync nounwind memory(readwrite, inaccessiblemem: none) uwtable
define void @BandScale(double noundef %0, ptr noundef readonly captures(none) %1) local_unnamed_addr #2 {
  %3 = getelementptr inbounds nuw i8, ptr %1, i64 72
  %4 = load ptr, ptr %3, align 8, !tbaa !3
  %5 = getelementptr inbounds nuw i8, ptr %1, i64 8
  %6 = load i64, ptr %5, align 8, !tbaa !12
  %7 = getelementptr inbounds nuw i8, ptr %1, i64 32
  %8 = load i64, ptr %7, align 8, !tbaa !13
  %9 = getelementptr inbounds nuw i8, ptr %1, i64 40
  %10 = load i64, ptr %9, align 8, !tbaa !14
  %11 = getelementptr inbounds nuw i8, ptr %1, i64 48
  %12 = load i64, ptr %11, align 8, !tbaa !15
  %13 = add i64 %10, %8
  %14 = icmp sgt i64 %6, 0
  br i1 %14, label %.lr.ph19.i, label %bandScale.exit

.lr.ph19.i:                                       ; preds = %2
  %15 = sub i64 0, %8
  %.not15.i = icmp slt i64 %13, 0
  br i1 %.not15.i, label %bandScale.exit, label %.lr.ph.i

.lr.ph.i:                                         ; preds = %.lr.ph19.i, %._crit_edge.i
  %.01417.i = phi i64 [ %25, %._crit_edge.i ], [ 0, %.lr.ph19.i ]
  %16 = getelementptr inbounds nuw ptr, ptr %4, i64 %.01417.i
  %17 = load ptr, ptr %16, align 8, !tbaa !16
  %18 = getelementptr inbounds double, ptr %17, i64 %12
  %19 = getelementptr inbounds double, ptr %18, i64 %15
  br label %20

20:                                               ; preds = %20, %.lr.ph.i
  %.016.i = phi i64 [ 0, %.lr.ph.i ], [ %24, %20 ]
  %21 = getelementptr inbounds nuw double, ptr %19, i64 %.016.i
  %22 = load double, ptr %21, align 8, !tbaa !17
  %23 = fmul double %0, %22
  store double %23, ptr %21, align 8, !tbaa !17
  %24 = add nuw i64 %.016.i, 1
  %exitcond.not.i = icmp eq i64 %.016.i, %13
  br i1 %exitcond.not.i, label %._crit_edge.i, label %20, !llvm.loop !33

._crit_edge.i:                                    ; preds = %20
  %25 = add nuw nsw i64 %.01417.i, 1
  %exitcond22.not.i = icmp eq i64 %25, %6
  br i1 %exitcond22.not.i, label %bandScale.exit, label %.lr.ph.i, !llvm.loop !34

bandScale.exit:                                   ; preds = %._crit_edge.i, %2, %.lr.ph19.i
  ret void
}